; Function Attrs: mustprogress nofree norecurse nosync nounwind willreturn memory(read, argmem: readwrite, inaccessiblemem: none) uwtable
define hidden void @_Py_Specialize_LoadSuperAttr(i64 %0, i64 %1, ptr noundef captures(none) %2, i32 noundef %3) local_unnamed_addr #2 {
  %.not = icmp eq i64 %0, ptrtoint (ptr @PySuper_Type to i64)
  br i1 %.not, label %5, label %13

5:                                                ; preds = %4
  %6 = inttoptr i64 %1 to ptr
  %7 = getelementptr i8, ptr %6, i64 8
  %.val = load ptr, ptr %7, align 8, !tbaa !9
  %8 = getelementptr i8, ptr %.val, i64 168
  %.val.val = load i64, ptr %8, align 8, !tbaa !13
  %9 = and i64 %.val.val, 2147483648
  %.not8 = icmp eq i64 %9, 0
  br i1 %.not8, label %13, label %10

10:                                               ; preds = %5
  %.not7 = icmp eq i32 %3, 0
  %11 = select i1 %.not7, i8 -42, i8 -41
  store i8 %11, ptr %2, align 2, !tbaa !4
  %12 = getelementptr i8, ptr %2, i64 2
  store i16 832, ptr %12, align 2, !tbaa !24
  br label %27

13:                                               ; preds = %5, %4
  %14 = load i8, ptr %2, align 2, !tbaa !4
  %15 = zext i8 %14 to i64
  %16 = getelementptr [256 x i8], ptr @_PyOpcode_Deopt, i64 0, i64 %15
  %17 = load i8, ptr %16, align 1, !tbaa !4
  store i8 %17, ptr %2, align 2, !tbaa !4
  %18 = getelementptr i8, ptr %2, i64 2
  %.val.i = load i16, ptr %18, align 2, !tbaa !24
  %19 = and i16 %.val.i, 15
  %20 = icmp samesign ult i16 %19, 12
  br i1 %20, label %21, label %unspecialize.exit

21:                                               ; preds = %13
  %narrow.i.i.i = add nuw nsw i16 %19, 1
  %22 = zext nneg i16 %narrow.i.i.i to i32
  %notmask.i.i.i = shl nsw i32 -1, %22
  %23 = trunc i32 %notmask.i.i.i to i16
  %24 = xor i16 %23, -1
  %25 = shl nuw i16 %24, 4
  %26 = or i16 %25, %narrow.i.i.i
  br label %unspecialize.exit

unspecialize.exit:                                ; preds = %13, %21
  %.sroa.03.0.i.i.i = phi i16 [ %26, %21 ], [ -4, %13 ]
  store i16 %.sroa.03.0.i.i.i, ptr %18, align 2, !tbaa !24
  br label %27

27:                                               ; preds = %unspecialize.exit, %10
  ret void
}